; ModuleID = '53/488.c'
source_filename = "53/488.c"
target datalayout = "e-m:e-p270:32:32-p271:32:32-p272:64:64-i64:64-f80:128-n8:16:32:64-S128"
target triple = "x86_64-pc-linux-gnu"

@.str = private unnamed_addr constant [3 x i8] c"%d\00", align 1
@.str.1 = private unnamed_addr constant [3 x i8] c"%s\00", align 1
@.str.2 = private unnamed_addr constant [2 x i8] c" \00", align 1
@.str.3 = private unnamed_addr constant [4 x i8] c",%s\00", align 1

; Function Attrs: noinline nounwind uwtable
define dso_local void @main() #0 {
  %1 = alloca [300 x [3 x i8]], align 16
  %2 = alloca i32, align 4
  %3 = alloca i32, align 4
  %4 = alloca i32, align 4
  %5 = call i32 (i8*, ...) @__isoc99_scanf(i8* getelementptr inbounds ([3 x i8], [3 x i8]* @.str, i64 0, i64 0), i32* %2)
  store i32 0, i32* %3, align 4
  br label %6

6:                                                ; preds = %16, %0
  %7 = load i32, i32* %3, align 4
  %8 = load i32, i32* %2, align 4
  %9 = icmp slt i32 %7, %8
  br i1 %9, label %10, label %19

10:                                               ; preds = %6
  %11 = load i32, i32* %3, align 4
  %12 = sext i32 %11 to i64
  %13 = getelementptr inbounds [300 x [3 x i8]], [300 x [3 x i8]]* %1, i64 0, i64 %12
  %14 = getelementptr inbounds [3 x i8], [3 x i8]* %13, i64 0, i64 0
  %15 = call i32 (i8*, ...) @__isoc99_scanf(i8* getelementptr inbounds ([3 x i8], [3 x i8]* @.str.1, i64 0, i64 0), i8* %14)
  br label %16

16:                                               ; preds = %10
  %17 = load i32, i32* %3, align 4
  %18 = add nsw i32 %17, 1
  store i32 %18, i32* %3, align 4
  br label %6

19:                                               ; preds = %6
  store i32 0, i32* %3, align 4
  br label %20

20:                                               ; preds = %53, %19
  %21 = load i32, i32* %3, align 4
  %22 = load i32, i32* %2, align 4
  %23 = icmp slt i32 %21, %22
  br i1 %23, label %24, label %56

24:                                               ; preds = %20
  %25 = load i32, i32* %3, align 4
  %26 = add nsw i32 %25, 1
  store i32 %26, i32* %4, align 4
  br label %27

27:                                               ; preds = %49, %24
  %28 = load i32, i32* %4, align 4
  %29 = load i32, i32* %2, align 4
  %30 = icmp slt i32 %28, %29
  br i1 %30, label %31, label %52

31:                                               ; preds = %27
  %32 = load i32, i32* %3, align 4
  %33 = sext i32 %32 to i64
  %34 = getelementptr inbounds [300 x [3 x i8]], [300 x [3 x i8]]* %1, i64 0, i64 %33
  %35 = getelementptr inbounds [3 x i8], [3 x i8]* %34, i64 0, i64 0
  %36 = load i32, i32* %4, align 4
  %37 = sext i32 %36 to i64
  %38 = getelementptr inbounds [300 x [3 x i8]], [300 x [3 x i8]]* %1, i64 0, i64 %37
  %39 = getelementptr inbounds [3 x i8], [3 x i8]* %38, i64 0, i64 0
  %40 = call i32 @strcmp(i8* %35, i8* %39) #4
  %41 = icmp eq i32 %40, 0
  br i1 %41, label %42, label %48

42:                                               ; preds = %31
  %43 = load i32, i32* %4, align 4
  %44 = sext i32 %43 to i64
  %45 = getelementptr inbounds [300 x [3 x i8]], [300 x [3 x i8]]* %1, i64 0, i64 %44
  %46 = getelementptr inbounds [3 x i8], [3 x i8]* %45, i64 0, i64 0
  %47 = call i8* @strcpy(i8* %46, i8* getelementptr inbounds ([2 x i8], [2 x i8]* @.str.2, i64 0, i64 0)) #5
  br label %48

48:                                               ; preds = %42, %31
  br label %49

49:                                               ; preds = %48
  %50 = load i32, i32* %4, align 4
  %51 = add nsw i32 %50, 1
  store i32 %51, i32* %4, align 4
  br label %27

52:                                               ; preds = %27
  br label %53

53:                                               ; preds = %52
  %54 = load i32, i32* %3, align 4
  %55 = add nsw i32 %54, 1
  store i32 %55, i32* %3, align 4
  br label %20

56:                                               ; preds = %20
  %57 = getelementptr inbounds [300 x [3 x i8]], [300 x [3 x i8]]* %1, i64 0, i64 0
  %58 = getelementptr inbounds [3 x i8], [3 x i8]* %57, i64 0, i64 0
  %59 = call i32 (i8*, ...) @printf(i8* getelementptr inbounds ([3 x i8], [3 x i8]* @.str.1, i64 0, i64 0), i8* %58)
  store i32 1, i32* %3, align 4
  br label %60

60:                                               ; preds = %78, %56
  %61 = load i32, i32* %3, align 4
  %62 = load i32, i32* %2, align 4
  %63 = icmp slt i32 %61, %62
  br i1 %63, label %64, label %81

64:                                               ; preds = %60
  %65 = load i32, i32* %3, align 4
  %66 = sext i32 %65 to i64
  %67 = getelementptr inbounds [300 x [3 x i8]], [300 x [3 x i8]]* %1, i64 0, i64 %66
  %68 = getelementptr inbounds [3 x i8], [3 x i8]* %67, i64 0, i64 0
  %69 = call i32 @strcmp(i8* %68, i8* getelementptr inbounds ([2 x i8], [2 x i8]* @.str.2, i64 0, i64 0)) #4
  %70 = icmp ne i32 %69, 0
  br i1 %70, label %71, label %77

71:                                               ; preds = %64
  %72 = load i32, i32* %3, align 4
  %73 = sext i32 %72 to i64
  %74 = getelementptr inbounds [300 x [3 x i8]], [300 x [3 x i8]]* %1, i64 0, i64 %73
  %75 = getelementptr inbounds [3 x i8], [3 x i8]* %74, i64 0, i64 0
  %76 = call i32 (i8*, ...) @printf(i8* getelementptr inbounds ([4 x i8], [4 x i8]* @.str.3, i64 0, i64 0), i8* %75)
  br label %77

77:                                               ; preds = %71, %64
  br label %78

78:                                               ; preds = %77
  %79 = load i32, i32* %3, align 4
  %80 = add nsw i32 %79, 1
  store i32 %80, i32* %3, align 4
  br label %60

81:                                               ; preds = %60
  ret void
}

declare dso_local i32 @__isoc99_scanf(i8*, ...) #1

; Function Attrs: nounwind readonly
declare dso_local i32 @strcmp(i8*, i8*) #2

; Function Attrs: nounwind
declare dso_local i8* @strcpy(i8*, i8*) #3

declare dso_local i32 @printf(i8*, ...) #1


!llvm.module.flags = !{!0}
!llvm.ident = !{!1}

!0 = !{i32 1, !"wchar_size", i32 4}
!1 = !{!"clang version 10.0.0-4ubuntu1 "}
