; ModuleID = 'source-C-CXX/52/488.c'
source_filename = "source-C-CXX/52/488.c"
target datalayout = "e-m:e-p270:32:32-p271:32:32-p272:64:64-i64:64-f80:128-n8:16:32:64-S128"
target triple = "x86_64-pc-linux-gnu"

@.str = private unnamed_addr constant [3 x i8] c"%d\00", align 1
@.str.1 = private unnamed_addr constant [3 x i8] c"%s\00", align 1
@.str.2 = private unnamed_addr constant [2 x i8] c" \00", align 1
@.str.3 = private unnamed_addr constant [4 x i8] c",%s\00", align 1

; Function Attrs: nofree nounwind sspstrong uwtable
define dso_local void @main() local_unnamed_addr #0 {
  %1 = alloca [300 x [3 x i8]], align 16
  %2 = alloca i32, align 4
  %3 = getelementptr inbounds [300 x [3 x i8]], [300 x [3 x i8]]* %1, i64 0, i64 0, i64 0
  call void @llvm.lifetime.start.p0i8(i64 900, i8* nonnull %3) #4
  %4 = bitcast i32* %2 to i8*
  call void @llvm.lifetime.start.p0i8(i64 4, i8* nonnull %4) #4
  %5 = call i32 (i8*, ...) @__isoc99_scanf(i8* getelementptr inbounds ([3 x i8], [3 x i8]* @.str, i64 0, i64 0), i32* nonnull %2)
  %6 = load i32, i32* %2, align 4, !tbaa !5
  %7 = icmp sgt i32 %6, 0
  br i1 %7, label %13, label %40

8:                                                ; preds = %13
  %9 = icmp sgt i32 %18, 0
  br i1 %9, label %10, label %40

10:                                               ; preds = %8
  %11 = zext i32 %18 to i64
  %12 = zext i32 %18 to i64
  br label %24

13:                                               ; preds = %0, %13
  %14 = phi i64 [ %17, %13 ], [ 0, %0 ]
  %15 = getelementptr inbounds [300 x [3 x i8]], [300 x [3 x i8]]* %1, i64 0, i64 %14, i64 0
  %16 = call i32 (i8*, ...) @__isoc99_scanf(i8* getelementptr inbounds ([3 x i8], [3 x i8]* @.str.1, i64 0, i64 0), i8* nonnull %15)
  %17 = add nuw nsw i64 %14, 1
  %18 = load i32, i32* %2, align 4, !tbaa !5
  %19 = sext i32 %18 to i64
  %20 = icmp slt i64 %17, %19
  br i1 %20, label %13, label %8, !llvm.loop !9

21:                                               ; preds = %37, %24
  %22 = add nuw nsw i64 %26, 1
  %23 = icmp eq i64 %27, %12
  br i1 %23, label %40, label %24, !llvm.loop !11

24:                                               ; preds = %10, %21
  %25 = phi i64 [ 0, %10 ], [ %27, %21 ]
  %26 = phi i64 [ 1, %10 ], [ %22, %21 ]
  %27 = add nuw nsw i64 %25, 1
  %28 = getelementptr inbounds [300 x [3 x i8]], [300 x [3 x i8]]* %1, i64 0, i64 %25, i64 0
  %29 = icmp ult i64 %27, %11
  br i1 %29, label %30, label %21

30:                                               ; preds = %24, %37
  %31 = phi i64 [ %38, %37 ], [ %26, %24 ]
  %32 = getelementptr inbounds [300 x [3 x i8]], [300 x [3 x i8]]* %1, i64 0, i64 %31, i64 0
  %33 = call i32 @strcmp(i8* noundef nonnull %28, i8* noundef nonnull %32) #5
  %34 = icmp eq i32 %33, 0
  br i1 %34, label %35, label %37

35:                                               ; preds = %30
  %36 = bitcast i8* %32 to i16*
  store i16 32, i16* %36, align 1
  br label %37

37:                                               ; preds = %30, %35
  %38 = add nuw nsw i64 %31, 1
  %39 = icmp eq i64 %38, %12
  br i1 %39, label %21, label %30, !llvm.loop !12

40:                                               ; preds = %21, %0, %8
  %41 = call i32 (i8*, ...) @printf(i8* nonnull dereferenceable(1) getelementptr inbounds ([3 x i8], [3 x i8]* @.str.1, i64 0, i64 0), i8* nonnull %3)
  %42 = load i32, i32* %2, align 4, !tbaa !5
  %43 = icmp sgt i32 %42, 1
  br i1 %43, label %44, label %58

44:                                               ; preds = %40, %53
  %45 = phi i32 [ %54, %53 ], [ %42, %40 ]
  %46 = phi i64 [ %55, %53 ], [ 1, %40 ]
  %47 = getelementptr inbounds [300 x [3 x i8]], [300 x [3 x i8]]* %1, i64 0, i64 %46, i64 0
  %48 = call i32 @strcmp(i8* noundef nonnull %47, i8* noundef nonnull dereferenceable(2) getelementptr inbounds ([2 x i8], [2 x i8]* @.str.2, i64 0, i64 0)) #5
  %49 = icmp eq i32 %48, 0
  br i1 %49, label %53, label %50

50:                                               ; preds = %44
  %51 = call i32 (i8*, ...) @printf(i8* nonnull dereferenceable(1) getelementptr inbounds ([4 x i8], [4 x i8]* @.str.3, i64 0, i64 0), i8* nonnull %47)
  %52 = load i32, i32* %2, align 4, !tbaa !5
  br label %53

53:                                               ; preds = %44, %50
  %54 = phi i32 [ %45, %44 ], [ %52, %50 ]
  %55 = add nuw nsw i64 %46, 1
  %56 = sext i32 %54 to i64
  %57 = icmp slt i64 %55, %56
  br i1 %57, label %44, label %58, !llvm.loop !13

58:                                               ; preds = %53, %40
  call void @llvm.lifetime.end.p0i8(i64 4, i8* nonnull %4) #4
  call void @llvm.lifetime.end.p0i8(i64 900, i8* nonnull %3) #4
  ret void
}

; Function Attrs: argmemonly mustprogress nofree nosync nounwind willreturn
declare void @llvm.lifetime.start.p0i8(i64 immarg, i8* nocapture) #1

; Function Attrs: nofree nounwind
declare noundef i32 @__isoc99_scanf(i8* nocapture noundef readonly, ...) local_unnamed_addr #2

; Function Attrs: argmemonly mustprogress nofree nounwind readonly willreturn
declare i32 @strcmp(i8* nocapture, i8* nocapture) local_unnamed_addr #3

; Function Attrs: nofree nounwind
declare noundef i32 @printf(i8* nocapture noundef readonly, ...) local_unnamed_addr #2

; Function Attrs: argmemonly mustprogress nofree nosync nounwind willreturn
declare void @llvm.lifetime.end.p0i8(i64 immarg, i8* nocapture) #1


!llvm.module.flags = !{!0, !1, !2, !3}
!llvm.ident = !{!4}

!0 = !{i32 1, !"wchar_size", i32 4}
!1 = !{i32 7, !"PIC Level", i32 2}
!2 = !{i32 7, !"PIE Level", i32 2}
!3 = !{i32 7, !"uwtable", i32 1}
!4 = !{!"clang version 13.0.0"}
!5 = !{!6, !6, i64 0}
!6 = !{!"int", !7, i64 0}
!7 = !{!"omnipotent char", !8, i64 0}
!8 = !{!"Simple C/C++ TBAA"}
!9 = distinct !{!9, !10}
!10 = !{!"llvm.loop.mustprogress"}
!11 = distinct !{!11, !10}
!12 = distinct !{!12, !10}
!13 = distinct !{!13, !10}
